target datalayout = "e-m:e-p270:32:32-p271:32:32-p272:64:64-i64:64-i128:128-f80:128-n8:16:32:64-S128"
target triple = "x86_64-pc-linux-gnu"

%struct.SDL_HIDAPI_RumbleContext = type { %struct.SDL_AtomicInt, %struct.SDL_AtomicInt, ptr, ptr, ptr, ptr }
%struct.SDL_AtomicInt = type { i32 }
%struct.SDL_HIDAPI_RumbleRequest = type { ptr, [128 x i8], i32, ptr, ptr, ptr }
%struct.SDL_HIDAPI_Device = type { ptr, ptr, ptr, ptr, i16, i16, i16, ptr, %struct.SDL_GUID, i32, i32, i32, i32, i16, i16, i8, i32, i32, i32, ptr, ptr, ptr, ptr, %struct.SDL_AtomicInt, i32, ptr, i8, i8, i8, ptr, i32, ptr, ptr }
%struct.SDL_GUID = type { [16 x i8] }

@SDL_HIDAPI_rumble_lock = internal global ptr null, align 8

; Function Attrs: nounwind uwtable
define internal void @SDL_HIDAPI_StopRumbleThread(ptr noundef %0) #0 {
  %2 = alloca ptr, align 8
  %3 = alloca ptr, align 8
  %4 = alloca i32, align 4
  store ptr %0, ptr %2, align 8
  call void @llvm.lifetime.start.p0(i64 8, ptr %3) #5
  %5 = load ptr, ptr %2, align 8
  %6 = getelementptr inbounds nuw %struct.SDL_HIDAPI_RumbleContext, ptr %5, i32 0, i32 1
  %7 = call i32 @SDL_SetAtomicInt_REAL(ptr noundef %6, i32 noundef 0)
  %8 = load ptr, ptr %2, align 8
  %9 = getelementptr inbounds nuw %struct.SDL_HIDAPI_RumbleContext, ptr %8, i32 0, i32 2
  %10 = load ptr, ptr %9, align 8
  %11 = icmp ne ptr %10, null
  br i1 %11, label %12, label %21

12:                                               ; preds = %1
  call void @llvm.lifetime.start.p0(i64 4, ptr %4) #5
  %13 = load ptr, ptr %2, align 8
  %14 = getelementptr inbounds nuw %struct.SDL_HIDAPI_RumbleContext, ptr %13, i32 0, i32 3
  %15 = load ptr, ptr %14, align 8
  call void @SDL_SignalSemaphore_REAL(ptr noundef %15)
  %16 = load ptr, ptr %2, align 8
  %17 = getelementptr inbounds nuw %struct.SDL_HIDAPI_RumbleContext, ptr %16, i32 0, i32 2
  %18 = load ptr, ptr %17, align 8
  call void @SDL_WaitThread_REAL(ptr noundef %18, ptr noundef %4)
  %19 = load ptr, ptr %2, align 8
  %20 = getelementptr inbounds nuw %struct.SDL_HIDAPI_RumbleContext, ptr %19, i32 0, i32 2
  store ptr null, ptr %20, align 8
  call void @llvm.lifetime.end.p0(i64 4, ptr %4) #5
  br label %21

21:                                               ; preds = %12, %1
  %22 = load ptr, ptr @SDL_HIDAPI_rumble_lock, align 8
  call void @SDL_LockMutex_REAL(ptr noundef %22)
  br label %23

23:                                               ; preds = %57, %21
  %24 = load ptr, ptr %2, align 8
  %25 = getelementptr inbounds nuw %struct.SDL_HIDAPI_RumbleContext, ptr %24, i32 0, i32 5
  %26 = load ptr, ptr %25, align 8
  %27 = icmp ne ptr %26, null
  br i1 %27, label %28, label %64

28:                                               ; preds = %23
  %29 = load ptr, ptr %2, align 8
  %30 = getelementptr inbounds nuw %struct.SDL_HIDAPI_RumbleContext, ptr %29, i32 0, i32 5
  %31 = load ptr, ptr %30, align 8
  store ptr %31, ptr %3, align 8
  %32 = load ptr, ptr %3, align 8
  %33 = load ptr, ptr %2, align 8
  %34 = getelementptr inbounds nuw %struct.SDL_HIDAPI_RumbleContext, ptr %33, i32 0, i32 4
  %35 = load ptr, ptr %34, align 8
  %36 = icmp eq ptr %32, %35
  br i1 %36, label %37, label %40

37:                                               ; preds = %28
  %38 = load ptr, ptr %2, align 8
  %39 = getelementptr inbounds nuw %struct.SDL_HIDAPI_RumbleContext, ptr %38, i32 0, i32 4
  store ptr null, ptr %39, align 8
  br label %40

40:                                               ; preds = %37, %28
  %41 = load ptr, ptr %3, align 8
  %42 = getelementptr inbounds nuw %struct.SDL_HIDAPI_RumbleRequest, ptr %41, i32 0, i32 5
  %43 = load ptr, ptr %42, align 8
  %44 = load ptr, ptr %2, align 8
  %45 = getelementptr inbounds nuw %struct.SDL_HIDAPI_RumbleContext, ptr %44, i32 0, i32 5
  store ptr %43, ptr %45, align 8
  %46 = load ptr, ptr %3, align 8
  %47 = getelementptr inbounds nuw %struct.SDL_HIDAPI_RumbleRequest, ptr %46, i32 0, i32 3
  %48 = load ptr, ptr %47, align 8
  %49 = icmp ne ptr %48, null
  br i1 %49, label %50, label %57

50:                                               ; preds = %40
  %51 = load ptr, ptr %3, align 8
  %52 = getelementptr inbounds nuw %struct.SDL_HIDAPI_RumbleRequest, ptr %51, i32 0, i32 3
  %53 = load ptr, ptr %52, align 8
  %54 = load ptr, ptr %3, align 8
  %55 = getelementptr inbounds nuw %struct.SDL_HIDAPI_RumbleRequest, ptr %54, i32 0, i32 4
  %56 = load ptr, ptr %55, align 8
  call void %53(ptr noundef %56)
  br label %57

57:                                               ; preds = %50, %40
  %58 = load ptr, ptr %3, align 8
  %59 = getelementptr inbounds nuw %struct.SDL_HIDAPI_RumbleRequest, ptr %58, i32 0, i32 0
  %60 = load ptr, ptr %59, align 8
  %61 = getelementptr inbounds nuw %struct.SDL_HIDAPI_Device, ptr %60, i32 0, i32 23
  %62 = call i32 @SDL_AddAtomicInt_REAL(ptr noundef %61, i32 noundef -1)
  %63 = load ptr, ptr %3, align 8
  call void @SDL_free_REAL(ptr noundef %63)
  br label %23, !llvm.loop !5

64:                                               ; preds = %23
  %65 = load ptr, ptr @SDL_HIDAPI_rumble_lock, align 8
  call void @SDL_UnlockMutex_REAL(ptr noundef %65)
  %66 = load ptr, ptr %2, align 8
  %67 = getelementptr inbounds nuw %struct.SDL_HIDAPI_RumbleContext, ptr %66, i32 0, i32 3
  %68 = load ptr, ptr %67, align 8
  %69 = icmp ne ptr %68, null
  br i1 %69, label %70, label %76

70:                                               ; preds = %64
  %71 = load ptr, ptr %2, align 8
  %72 = getelementptr inbounds nuw %struct.SDL_HIDAPI_RumbleContext, ptr %71, i32 0, i32 3
  %73 = load ptr, ptr %72, align 8
  call void @SDL_DestroySemaphore_REAL(ptr noundef %73)
  %74 = load ptr, ptr %2, align 8
  %75 = getelementptr inbounds nuw %struct.SDL_HIDAPI_RumbleContext, ptr %74, i32 0, i32 3
  store ptr null, ptr %75, align 8
  br label %76

76:                                               ; preds = %70, %64
  %77 = load ptr, ptr @SDL_HIDAPI_rumble_lock, align 8
  %78 = icmp ne ptr %77, null
  br i1 %78, label %79, label %81

79:                                               ; preds = %76
  %80 = load ptr, ptr @SDL_HIDAPI_rumble_lock, align 8
  call void @SDL_DestroyMutex_REAL(ptr noundef %80)
  store ptr null, ptr @SDL_HIDAPI_rumble_lock, align 8
  br label %81

81:                                               ; preds = %79, %76
  %82 = load ptr, ptr %2, align 8
  %83 = getelementptr inbounds nuw %struct.SDL_HIDAPI_RumbleContext, ptr %82, i32 0, i32 0
  %84 = call i32 @SDL_SetAtomicInt_REAL(ptr noundef %83, i32 noundef 0)
  call void @llvm.lifetime.end.p0(i64 8, ptr %3) #5
  ret void
}