; Function Attrs: nounwind uwtable
define internal fastcc void @SDL_HIDAPI_StopRumbleThread() unnamed_addr #0 {
  %1 = alloca i32, align 4
  %2 = tail call i32 @SDL_SetAtomicInt_REAL(ptr noundef nonnull getelementptr inbounds nuw (i8, ptr @rumble_context, i64 4), i32 noundef 0) #6
  %3 = load ptr, ptr getelementptr inbounds nuw (i8, ptr @rumble_context, i64 8), align 8
  %.not = icmp eq ptr %3, null
  br i1 %.not, label %7, label %4

4:                                                ; preds = %0
  call void @llvm.lifetime.start.p0(i64 4, ptr nonnull %1) #6
  %5 = load ptr, ptr getelementptr inbounds nuw (i8, ptr @rumble_context, i64 16), align 8
  tail call void @SDL_SignalSemaphore_REAL(ptr noundef %5) #6
  %6 = load ptr, ptr getelementptr inbounds nuw (i8, ptr @rumble_context, i64 8), align 8
  call void @SDL_WaitThread_REAL(ptr noundef %6, ptr noundef nonnull %1) #6
  store ptr null, ptr getelementptr inbounds nuw (i8, ptr @rumble_context, i64 8), align 8
  call void @llvm.lifetime.end.p0(i64 4, ptr nonnull %1) #6
  br label %7

7:                                                ; preds = %4, %0
  %8 = load ptr, ptr @SDL_HIDAPI_rumble_lock, align 8
  call void @SDL_LockMutex_REAL(ptr noundef %8) #6
  %9 = load ptr, ptr getelementptr inbounds nuw (i8, ptr @rumble_context, i64 32), align 8
  %.not241 = icmp eq ptr %9, null
  br i1 %.not241, label %._crit_edge, label %.lr.ph

.lr.ph:                                           ; preds = %7, %22
  %10 = phi ptr [ %26, %22 ], [ %9, %7 ]
  %11 = load ptr, ptr getelementptr inbounds nuw (i8, ptr @rumble_context, i64 24), align 8
  %12 = icmp eq ptr %10, %11
  br i1 %12, label %13, label %14

13:                                               ; preds = %.lr.ph
  store ptr null, ptr getelementptr inbounds nuw (i8, ptr @rumble_context, i64 24), align 8
  br label %14

14:                                               ; preds = %13, %.lr.ph
  %15 = getelementptr inbounds nuw i8, ptr %10, i64 160
  %16 = load ptr, ptr %15, align 8
  store ptr %16, ptr getelementptr inbounds nuw (i8, ptr @rumble_context, i64 32), align 8
  %17 = getelementptr inbounds nuw i8, ptr %10, i64 144
  %18 = load ptr, ptr %17, align 8
  %.not27 = icmp eq ptr %18, null
  br i1 %.not27, label %22, label %19

19:                                               ; preds = %14
  %20 = getelementptr inbounds nuw i8, ptr %10, i64 152
  %21 = load ptr, ptr %20, align 8
  call void %18(ptr noundef %21) #6
  br label %22

22:                                               ; preds = %19, %14
  %23 = load ptr, ptr %10, align 8
  %24 = getelementptr inbounds nuw i8, ptr %23, i64 136
  %25 = call i32 @SDL_AddAtomicInt_REAL(ptr noundef nonnull %24, i32 noundef -1) #6
  call void @SDL_free_REAL(ptr noundef nonnull %10) #6
  %26 = load ptr, ptr getelementptr inbounds nuw (i8, ptr @rumble_context, i64 32), align 8
  %.not24 = icmp eq ptr %26, null
  br i1 %.not24, label %._crit_edge, label %.lr.ph, !llvm.loop !5

._crit_edge:                                      ; preds = %22, %7
  %27 = load ptr, ptr @SDL_HIDAPI_rumble_lock, align 8
  call void @SDL_UnlockMutex_REAL(ptr noundef %27) #6
  %28 = load ptr, ptr getelementptr inbounds nuw (i8, ptr @rumble_context, i64 16), align 8
  %.not25 = icmp eq ptr %28, null
  br i1 %.not25, label %30, label %29

29:                                               ; preds = %._crit_edge
  call void @SDL_DestroySemaphore_REAL(ptr noundef nonnull %28) #6
  store ptr null, ptr getelementptr inbounds nuw (i8, ptr @rumble_context, i64 16), align 8
  br label %30

30:                                               ; preds = %29, %._crit_edge
  %31 = load ptr, ptr @SDL_HIDAPI_rumble_lock, align 8
  %.not26 = icmp eq ptr %31, null
  br i1 %.not26, label %33, label %32

32:                                               ; preds = %30
  call void @SDL_DestroyMutex_REAL(ptr noundef nonnull %31) #6
  store ptr null, ptr @SDL_HIDAPI_rumble_lock, align 8
  br label %33

33:                                               ; preds = %32, %30
  %34 = call i32 @SDL_SetAtomicInt_REAL(ptr noundef nonnull @rumble_context, i32 noundef 0) #6
  ret void
}